target datalayout = "e-m:e-p270:32:32-p271:32:32-p272:64:64-i64:64-i128:128-f80:128-n8:16:32:64-S128"
target triple = "x86_64-pc-linux-gnu"

%struct.bignum_st = type { ptr, i32, i32, i32, i32 }

@.str = private unnamed_addr constant [118 x i8] c"generated/home/dtcxzyw/WorkSpace/Projects/compilers/llvm-opt-benchmark/bench/libquic/libquic/boringssl/crypto/bn/bn.c\00", align 1

; Function Attrs: nounwind uwtable
define hidden void @BN_free(ptr noundef %0) #0 {
  %2 = alloca ptr, align 8
  store ptr %0, ptr %2, align 8, !tbaa !6
  %3 = load ptr, ptr %2, align 8, !tbaa !6
  %4 = icmp eq ptr %3, null
  br i1 %4, label %5, label %6

5:                                                ; preds = %1
  br label %27

6:                                                ; preds = %1
  %7 = load ptr, ptr %2, align 8, !tbaa !6
  %8 = getelementptr inbounds nuw %struct.bignum_st, ptr %7, i32 0, i32 4
  %9 = load i32, ptr %8, align 4, !tbaa !11
  %10 = and i32 %9, 2
  %11 = icmp eq i32 %10, 0
  br i1 %11, label %12, label %16

12:                                               ; preds = %6
  %13 = load ptr, ptr %2, align 8, !tbaa !6
  %14 = getelementptr inbounds nuw %struct.bignum_st, ptr %13, i32 0, i32 0
  %15 = load ptr, ptr %14, align 8, !tbaa !15
  call void @free(ptr noundef %15) #7
  br label %16

16:                                               ; preds = %12, %6
  %17 = load ptr, ptr %2, align 8, !tbaa !6
  %18 = getelementptr inbounds nuw %struct.bignum_st, ptr %17, i32 0, i32 4
  %19 = load i32, ptr %18, align 4, !tbaa !11
  %20 = and i32 %19, 1
  %21 = icmp ne i32 %20, 0
  br i1 %21, label %22, label %24

22:                                               ; preds = %16
  %23 = load ptr, ptr %2, align 8, !tbaa !6
  call void @free(ptr noundef %23) #7
  br label %27

24:                                               ; preds = %16
  %25 = load ptr, ptr %2, align 8, !tbaa !6
  %26 = getelementptr inbounds nuw %struct.bignum_st, ptr %25, i32 0, i32 0
  store ptr null, ptr %26, align 8, !tbaa !15
  br label %27

27:                                               ; preds = %5, %24, %22
  ret void
}

; Function Attrs: nounwind uwtable
define hidden ptr @BN_copy(ptr noundef %0, ptr noundef %1) #0 {
  %3 = alloca ptr, align 8
  %4 = alloca ptr, align 8
  %5 = alloca ptr, align 8
  store ptr %0, ptr %4, align 8, !tbaa !6
  store ptr %1, ptr %5, align 8, !tbaa !6
  %6 = load ptr, ptr %5, align 8, !tbaa !6
  %7 = load ptr, ptr %4, align 8, !tbaa !6
  %8 = icmp eq ptr %6, %7
  br i1 %8, label %9, label %11

9:                                                ; preds = %2
  %10 = load ptr, ptr %4, align 8, !tbaa !6
  store ptr %10, ptr %3, align 8
  br label %43

11:                                               ; preds = %2
  %12 = load ptr, ptr %4, align 8, !tbaa !6
  %13 = load ptr, ptr %5, align 8, !tbaa !6
  %14 = getelementptr inbounds nuw %struct.bignum_st, ptr %13, i32 0, i32 1
  %15 = load i32, ptr %14, align 8, !tbaa !18
  %16 = sext i32 %15 to i64
  %17 = call ptr @bn_wexpand(ptr noundef %12, i64 noundef %16)
  %18 = icmp eq ptr %17, null
  br i1 %18, label %19, label %20

19:                                               ; preds = %11
  store ptr null, ptr %3, align 8
  br label %43

20:                                               ; preds = %11
  %21 = load ptr, ptr %4, align 8, !tbaa !6
  %22 = getelementptr inbounds nuw %struct.bignum_st, ptr %21, i32 0, i32 0
  %23 = load ptr, ptr %22, align 8, !tbaa !15
  %24 = load ptr, ptr %5, align 8, !tbaa !6
  %25 = getelementptr inbounds nuw %struct.bignum_st, ptr %24, i32 0, i32 0
  %26 = load ptr, ptr %25, align 8, !tbaa !15
  %27 = load ptr, ptr %5, align 8, !tbaa !6
  %28 = getelementptr inbounds nuw %struct.bignum_st, ptr %27, i32 0, i32 1
  %29 = load i32, ptr %28, align 8, !tbaa !18
  %30 = sext i32 %29 to i64
  %31 = mul i64 8, %30
  call void @llvm.memcpy.p0.p0.i64(ptr align 8 %23, ptr align 8 %26, i64 %31, i1 false)
  %32 = load ptr, ptr %5, align 8, !tbaa !6
  %33 = getelementptr inbounds nuw %struct.bignum_st, ptr %32, i32 0, i32 1
  %34 = load i32, ptr %33, align 8, !tbaa !18
  %35 = load ptr, ptr %4, align 8, !tbaa !6
  %36 = getelementptr inbounds nuw %struct.bignum_st, ptr %35, i32 0, i32 1
  store i32 %34, ptr %36, align 8, !tbaa !18
  %37 = load ptr, ptr %5, align 8, !tbaa !6
  %38 = getelementptr inbounds nuw %struct.bignum_st, ptr %37, i32 0, i32 3
  %39 = load i32, ptr %38, align 8, !tbaa !19
  %40 = load ptr, ptr %4, align 8, !tbaa !6
  %41 = getelementptr inbounds nuw %struct.bignum_st, ptr %40, i32 0, i32 3
  store i32 %39, ptr %41, align 8, !tbaa !19
  %42 = load ptr, ptr %4, align 8, !tbaa !6
  store ptr %42, ptr %3, align 8
  br label %43

43:                                               ; preds = %20, %19, %9
  %44 = load ptr, ptr %3, align 8
  ret ptr %44
}

; Function Attrs: nounwind uwtable
define hidden ptr @BN_new() #0 {
  %1 = alloca ptr, align 8
  %2 = alloca ptr, align 8
  %3 = alloca i32, align 4
  call void @llvm.lifetime.start.p0(i64 8, ptr %2) #7
  %4 = call noalias ptr @malloc(i64 noundef 24) #8
  store ptr %4, ptr %2, align 8, !tbaa !6
  %5 = load ptr, ptr %2, align 8, !tbaa !6
  %6 = icmp eq ptr %5, null
  br i1 %6, label %7, label %8

7:                                                ; preds = %0
  call void @ERR_put_error(i32 noundef 3, i32 noundef 0, i32 noundef 65, ptr noundef @.str, i32 noundef 72)
  store ptr null, ptr %1, align 8
  store i32 1, ptr %3, align 4
  br label %13

8:                                                ; preds = %0
  %9 = load ptr, ptr %2, align 8, !tbaa !6
  call void @llvm.memset.p0.i64(ptr align 8 %9, i8 0, i64 24, i1 false)
  %10 = load ptr, ptr %2, align 8, !tbaa !6
  %11 = getelementptr inbounds nuw %struct.bignum_st, ptr %10, i32 0, i32 4
  store i32 1, ptr %11, align 4, !tbaa !11
  %12 = load ptr, ptr %2, align 8, !tbaa !6
  store ptr %12, ptr %1, align 8
  store i32 1, ptr %3, align 4
  br label %13

13:                                               ; preds = %8, %7
  call void @llvm.lifetime.end.p0(i64 8, ptr %2) #7
  %14 = load ptr, ptr %1, align 8
  ret ptr %14
}

; Function Attrs: nounwind uwtable
define hidden ptr @BN_dup(ptr noundef %0) #0 {
  %2 = alloca ptr, align 8
  %3 = alloca ptr, align 8
  %4 = alloca ptr, align 8
  %5 = alloca i32, align 4
  store ptr %0, ptr %3, align 8, !tbaa !6
  call void @llvm.lifetime.start.p0(i64 8, ptr %4) #7
  %6 = load ptr, ptr %3, align 8, !tbaa !6
  %7 = icmp eq ptr %6, null
  br i1 %7, label %8, label %9

8:                                                ; preds = %1
  store ptr null, ptr %2, align 8
  store i32 1, ptr %5, align 4
  br label %23

9:                                                ; preds = %1
  %10 = call ptr @BN_new()
  store ptr %10, ptr %4, align 8, !tbaa !6
  %11 = load ptr, ptr %4, align 8, !tbaa !6
  %12 = icmp eq ptr %11, null
  br i1 %12, label %13, label %14

13:                                               ; preds = %9
  store ptr null, ptr %2, align 8
  store i32 1, ptr %5, align 4
  br label %23

14:                                               ; preds = %9
  %15 = load ptr, ptr %4, align 8, !tbaa !6
  %16 = load ptr, ptr %3, align 8, !tbaa !6
  %17 = call ptr @BN_copy(ptr noundef %15, ptr noundef %16)
  %18 = icmp ne ptr %17, null
  br i1 %18, label %21, label %19

19:                                               ; preds = %14
  %20 = load ptr, ptr %4, align 8, !tbaa !6
  call void @BN_free(ptr noundef %20)
  store ptr null, ptr %2, align 8
  store i32 1, ptr %5, align 4
  br label %23

21:                                               ; preds = %14
  %22 = load ptr, ptr %4, align 8, !tbaa !6
  store ptr %22, ptr %2, align 8
  store i32 1, ptr %5, align 4
  br label %23

23:                                               ; preds = %21, %19, %13, %8
  call void @llvm.lifetime.end.p0(i64 8, ptr %4) #7
  %24 = load ptr, ptr %2, align 8
  ret ptr %24
}