; Function Attrs: nounwind uwtable
define hidden noundef ptr @BN_dup(ptr noundef readonly captures(address) %0) local_unnamed_addr #0 {
  %2 = icmp eq ptr %0, null
  br i1 %2, label %BN_free.exit, label %3

3:                                                ; preds = %1
  %calloc.i = tail call dereferenceable_or_null(24) ptr @calloc(i64 1, i64 24)
  %4 = icmp eq ptr %calloc.i, null
  br i1 %4, label %BN_new.exit.thread, label %5

BN_new.exit.thread:                               ; preds = %3
  tail call void @ERR_put_error(i32 noundef 3, i32 noundef 0, i32 noundef 65, ptr noundef nonnull @.str, i32 noundef 72) #14
  br label %BN_free.exit

5:                                                ; preds = %3
  %6 = getelementptr inbounds nuw i8, ptr %calloc.i, i64 20
  store i32 1, ptr %6, align 4, !tbaa !6
  %7 = icmp eq ptr %0, %calloc.i
  br i1 %7, label %BN_free.exit, label %8

8:                                                ; preds = %5
  %9 = getelementptr inbounds nuw i8, ptr %0, i64 8
  %10 = load i32, ptr %9, align 8, !tbaa !15
  %11 = sext i32 %10 to i64
  %12 = tail call ptr @bn_wexpand(ptr noundef nonnull %calloc.i, i64 noundef %11)
  %13 = icmp eq ptr %12, null
  br i1 %13, label %BN_copy.exit, label %14

14:                                               ; preds = %8
  %15 = load ptr, ptr %calloc.i, align 8, !tbaa !13
  %16 = load ptr, ptr %0, align 8, !tbaa !13
  %17 = load i32, ptr %9, align 8, !tbaa !15
  %18 = sext i32 %17 to i64
  %19 = shl nsw i64 %18, 3
  tail call void @llvm.memcpy.p0.p0.i64(ptr align 8 %15, ptr align 8 %16, i64 %19, i1 false)
  %20 = load i32, ptr %9, align 8, !tbaa !15
  %21 = getelementptr inbounds nuw i8, ptr %calloc.i, i64 8
  store i32 %20, ptr %21, align 8, !tbaa !15
  %22 = getelementptr inbounds nuw i8, ptr %0, i64 16
  %23 = load i32, ptr %22, align 8, !tbaa !16
  %24 = getelementptr inbounds nuw i8, ptr %calloc.i, i64 16
  store i32 %23, ptr %24, align 8, !tbaa !16
  br label %BN_free.exit

BN_copy.exit:                                     ; preds = %8
  %25 = load i32, ptr %6, align 4, !tbaa !6
  %26 = and i32 %25, 2
  %27 = icmp eq i32 %26, 0
  br i1 %27, label %28, label %30

28:                                               ; preds = %BN_copy.exit
  %29 = load ptr, ptr %calloc.i, align 8, !tbaa !13
  tail call void @free(ptr noundef %29) #14
  %.pre.i = load i32, ptr %6, align 4, !tbaa !6
  br label %30

30:                                               ; preds = %28, %BN_copy.exit
  %31 = phi i32 [ %.pre.i, %28 ], [ %25, %BN_copy.exit ]
  %32 = and i32 %31, 1
  %.not.i = icmp eq i32 %32, 0
  br i1 %.not.i, label %34, label %33

33:                                               ; preds = %30
  tail call void @free(ptr noundef nonnull %calloc.i) #14
  br label %BN_free.exit

34:                                               ; preds = %30
  store ptr null, ptr %calloc.i, align 8, !tbaa !13
  br label %BN_free.exit

BN_free.exit:                                     ; preds = %5, %14, %34, %33, %BN_new.exit.thread, %1
  %.0 = phi ptr [ null, %1 ], [ null, %BN_new.exit.thread ], [ null, %33 ], [ null, %34 ], [ %calloc.i, %14 ], [ %calloc.i, %5 ]
  ret ptr %.0
}